target datalayout = "e-m:e-p270:32:32-p271:32:32-p272:64:64-i64:64-i128:128-f80:128-n8:16:32:64-S128"
target triple = "x86_64-pc-linux-gnu"

%"struct.Luau::Position" = type { i32, i32 }
%"class.Luau::AstVisitor" = type { ptr }
%"class.Luau::AstNode" = type <{ ptr, i32, %"struct.Luau::Location", [4 x i8] }>
%"struct.Luau::Location" = type { %"struct.Luau::Position", %"struct.Luau::Position" }
%"class.Luau::AstStat.base" = type { %"class.Luau::AstNode.base", i8 }
%"class.Luau::AstNode.base" = type <{ ptr, i32, %"struct.Luau::Location" }>
%"struct.Luau::AstName" = type { ptr }
%"struct.Luau::ExprOrLocal" = type { ptr, ptr }
%"struct.Luau::(anonymous namespace)::FindExprOrLocal" = type { %"class.Luau::AstVisitor", %"struct.Luau::Position", %"struct.Luau::ExprOrLocal" }
%"class.std::optional.4" = type { %"struct.std::_Optional_base.5" }
%"struct.std::_Optional_base.5" = type { %"struct.std::_Optional_payload.7" }
%"struct.std::_Optional_payload.7" = type { %"struct.std::_Optional_payload_base.base.9", [3 x i8] }
%"struct.std::_Optional_payload_base.base.9" = type <{ %"union.std::_Optional_payload_base<Luau::Location>::_Storage", i8 }>
%"union.std::_Optional_payload_base<Luau::Location>::_Storage" = type { %"struct.Luau::Location" }
%"struct.Luau::AstArray.298" = type { ptr, i64 }
%"struct.Luau::AstArray.2" = type { ptr, i64 }
%"struct.Luau::AstLocal" = type { %"struct.Luau::AstName", %"struct.Luau::Location", ptr, i64, i64, ptr }
%"class.Luau::AstStatLocal" = type <{ %"class.Luau::AstStat.base", [3 x i8], %"struct.Luau::AstArray.2", %"struct.Luau::AstArray.298", %"class.std::optional.4", [4 x i8] }>
%"struct.std::_Optional_payload_base.8" = type <{ %"union.std::_Optional_payload_base<Luau::Location>::_Storage", i8, [3 x i8] }>

; Function Attrs: mustprogress nounwind uwtable
define linkonce_odr dso_local void @_ZNSt22_Optional_payload_baseIN4Luau8LocationEE8_StorageIS1_Lb1EEC2Ev(ptr noundef nonnull align 4 dereferenceable(16) %0) unnamed_addr #2 comdat align 2 {
  %2 = alloca ptr, align 8
  store ptr %0, ptr %2, align 8, !tbaa !475
  ret void
}

; Function Attrs: mustprogress nounwind uwtable
define linkonce_odr dso_local void @_ZNSt22_Optional_payload_baseIN4Luau8LocationEE8_StorageIS1_Lb1EEC2IJRS1_EEESt10in_place_tDpOT_(ptr noundef nonnull align 4 dereferenceable(16) %0, ptr noundef nonnull align 4 dereferenceable(16) %1) unnamed_addr #2 comdat align 2 {
  %3 = alloca ptr, align 8
  %4 = alloca ptr, align 8
  store ptr %0, ptr %3, align 8, !tbaa !475
  store ptr %1, ptr %4, align 8, !tbaa !416
  %5 = load ptr, ptr %3, align 8
  %6 = load ptr, ptr %4, align 8, !tbaa !416
  call void @llvm.memcpy.p0.p0.i64(ptr align 4 %5, ptr align 4 %6, i64 16, i1 false), !tbaa.struct !111
  ret void
}

; Function Attrs: mustprogress nounwind uwtable
define linkonce_odr dso_local void @_ZNSt22_Optional_payload_baseIN4Luau8LocationEEC2Ev(ptr noundef nonnull align 4 dereferenceable(17) %0) unnamed_addr #2 comdat align 2 {
  %2 = alloca ptr, align 8
  store ptr %0, ptr %2, align 8, !tbaa !472
  %3 = load ptr, ptr %2, align 8
  %4 = getelementptr inbounds nuw %"struct.std::_Optional_payload_base.8", ptr %3, i32 0, i32 0
  call void @_ZNSt22_Optional_payload_baseIN4Luau8LocationEE8_StorageIS1_Lb1EEC2Ev(ptr noundef nonnull align 4 dereferenceable(16) %4) #18
  %5 = getelementptr inbounds nuw %"struct.std::_Optional_payload_base.8", ptr %3, i32 0, i32 1
  store i8 0, ptr %5, align 4, !tbaa !474
  ret void
}

; Function Attrs: mustprogress uwtable
define linkonce_odr dso_local void @_ZNSt22_Optional_payload_baseIN4Luau8LocationEEC2IJRS1_EEESt10in_place_tDpOT_(ptr noundef nonnull align 4 dereferenceable(17) %0, ptr noundef nonnull align 4 dereferenceable(16) %1) unnamed_addr #5 comdat align 2 {
  %3 = alloca ptr, align 8
  %4 = alloca ptr, align 8
  store ptr %0, ptr %3, align 8, !tbaa !472
  store ptr %1, ptr %4, align 8, !tbaa !416
  %5 = load ptr, ptr %3, align 8
  %6 = getelementptr inbounds nuw %"struct.std::_Optional_payload_base.8", ptr %5, i32 0, i32 0
  %7 = load ptr, ptr %4, align 8, !tbaa !416
  call void @_ZNSt22_Optional_payload_baseIN4Luau8LocationEE8_StorageIS1_Lb1EEC2IJRS1_EEESt10in_place_tDpOT_(ptr noundef nonnull align 4 dereferenceable(16) %6, ptr noundef nonnull align 4 dereferenceable(16) %7)
  %8 = getelementptr inbounds nuw %"struct.std::_Optional_payload_base.8", ptr %5, i32 0, i32 1
  store i8 1, ptr %8, align 4, !tbaa !474
  ret void
}

; Function Attrs: mustprogress nounwind uwtable
define linkonce_odr dso_local void @_ZNSt17_Optional_payloadIN4Luau8LocationELb1ELb1ELb1EEC2Ev(ptr noundef nonnull align 4 dereferenceable(17) %0) unnamed_addr #2 comdat align 2 {
  %2 = alloca ptr, align 8
  store ptr %0, ptr %2, align 8, !tbaa !470
  %3 = load ptr, ptr %2, align 8
  call void @_ZNSt22_Optional_payload_baseIN4Luau8LocationEEC2Ev(ptr noundef nonnull align 4 dereferenceable(17) %3) #18
  ret void
}

; Function Attrs: inlinehint mustprogress uwtable
define linkonce_odr dso_local void @_ZNSt17_Optional_payloadIN4Luau8LocationELb1ELb1ELb1EECI2St22_Optional_payload_baseIS1_EIJRS1_EEESt10in_place_tDpOT_(ptr noundef nonnull align 4 dereferenceable(17) %0, ptr noundef nonnull align 4 dereferenceable(16) %1) unnamed_addr #7 comdat align 2 {
  %3 = alloca ptr, align 8
  %4 = alloca ptr, align 8
  store ptr %0, ptr %3, align 8, !tbaa !470
  store ptr %1, ptr %4, align 8, !tbaa !416
  %5 = load ptr, ptr %3, align 8
  %6 = load ptr, ptr %4, align 8
  call void @_ZNSt22_Optional_payload_baseIN4Luau8LocationEEC2IJRS1_EEESt10in_place_tDpOT_(ptr noundef nonnull align 4 dereferenceable(17) %5, ptr noundef nonnull align 4 dereferenceable(16) %6)
  ret void
}

; Function Attrs: mustprogress nounwind uwtable
define linkonce_odr dso_local noundef nonnull align 4 dereferenceable(16) ptr @_ZNSt22_Optional_payload_baseIN4Luau8LocationEE6_M_getEv(ptr noundef nonnull align 4 dereferenceable(17) %0) #2 comdat align 2 {
  %2 = alloca ptr, align 8
  store ptr %0, ptr %2, align 8, !tbaa !472
  %3 = load ptr, ptr %2, align 8
  %4 = getelementptr inbounds nuw %"struct.std::_Optional_payload_base.8", ptr %3, i32 0, i32 0
  ret ptr %4
}

; Function Attrs: mustprogress nounwind uwtable
define linkonce_odr dso_local void @_ZNSt14_Optional_baseIN4Luau8LocationELb1ELb1EEC2Ev(ptr noundef nonnull align 4 dereferenceable(20) %0) unnamed_addr #2 comdat align 2 {
  %2 = alloca ptr, align 8
  store ptr %0, ptr %2, align 8, !tbaa !468
  %3 = load ptr, ptr %2, align 8
  %4 = getelementptr inbounds nuw %"struct.std::_Optional_base.5", ptr %3, i32 0, i32 0
  call void @_ZNSt17_Optional_payloadIN4Luau8LocationELb1ELb1ELb1EEC2Ev(ptr noundef nonnull align 4 dereferenceable(17) %4) #18
  ret void
}

; Function Attrs: noinline noreturn nounwind uwtable
define linkonce_odr hidden void @__clang_call_terminate(ptr noundef %0) #11 comdat {
  %2 = call ptr @__cxa_begin_catch(ptr %0) #18
  call void @_ZSt9terminatev() #19
  unreachable
}

; Function Attrs: mustprogress uwtable
define linkonce_odr dso_local void @_ZNSt14_Optional_baseIN4Luau8LocationELb1ELb1EEC2IJRS1_ETnNSt9enable_ifIX18is_constructible_vIS1_DpT_EEbE4typeELb0EEESt10in_place_tDpOS6_(ptr noundef nonnull align 4 dereferenceable(20) %0, ptr noundef nonnull align 4 dereferenceable(16) %1) unnamed_addr #5 comdat align 2 {
  %3 = alloca ptr, align 8
  %4 = alloca ptr, align 8
  store ptr %0, ptr %3, align 8, !tbaa !468
  store ptr %1, ptr %4, align 8, !tbaa !416
  %5 = load ptr, ptr %3, align 8
  %6 = getelementptr inbounds nuw %"struct.std::_Optional_base.5", ptr %5, i32 0, i32 0
  %7 = load ptr, ptr %4, align 8, !tbaa !416
  call void @_ZNSt17_Optional_payloadIN4Luau8LocationELb1ELb1ELb1EECI2St22_Optional_payload_baseIS1_EIJRS1_EEESt10in_place_tDpOT_(ptr noundef nonnull align 4 dereferenceable(17) %6, ptr noundef nonnull align 4 dereferenceable(16) %7)
  ret void
}

; Function Attrs: mustprogress nounwind uwtable
define linkonce_odr dso_local noundef nonnull align 4 dereferenceable(16) ptr @_ZNSt19_Optional_base_implIN4Luau8LocationESt14_Optional_baseIS1_Lb1ELb1EEE6_M_getEv(ptr noundef nonnull align 1 dereferenceable(1) %0) #2 comdat align 2 {
  %2 = alloca ptr, align 8
  store ptr %0, ptr %2, align 8, !tbaa !477
  %3 = load ptr, ptr %2, align 8
  br label %4

4:                                                ; preds = %1
  br label %5

5:                                                ; preds = %4
  br label %6

6:                                                ; preds = %5
  %7 = getelementptr inbounds nuw %"struct.std::_Optional_base.5", ptr %3, i32 0, i32 0
  %8 = call noundef nonnull align 4 dereferenceable(16) ptr @_ZNSt22_Optional_payload_baseIN4Luau8LocationEE6_M_getEv(ptr noundef nonnull align 4 dereferenceable(17) %7) #18
  ret ptr %8
}

; Function Attrs: mustprogress nounwind uwtable
define linkonce_odr dso_local noundef zeroext i1 @_ZNKSt19_Optional_base_implIN4Luau8LocationESt14_Optional_baseIS1_Lb1ELb1EEE13_M_is_engagedEv(ptr noundef nonnull align 1 dereferenceable(1) %0) #2 comdat align 2 {
  %2 = alloca ptr, align 8
  store ptr %0, ptr %2, align 8, !tbaa !477
  %3 = load ptr, ptr %2, align 8
  %4 = getelementptr inbounds nuw %"struct.std::_Optional_base.5", ptr %3, i32 0, i32 0
  %5 = getelementptr inbounds nuw %"struct.std::_Optional_payload_base.8", ptr %4, i32 0, i32 1
  %6 = load i8, ptr %5, align 4, !tbaa !474, !range !16, !noundef !17
  %7 = trunc i8 %6 to i1
  ret i1 %7
}

; Function Attrs: mustprogress nounwind uwtable
define linkonce_odr dso_local void @_ZNSt8optionalIN4Luau8LocationEEC2Ev(ptr noundef nonnull align 4 dereferenceable(20) %0) unnamed_addr #2 comdat align 2 {
  %2 = alloca ptr, align 8
  store ptr %0, ptr %2, align 8, !tbaa !466
  %3 = load ptr, ptr %2, align 8
  call void @_ZNSt14_Optional_baseIN4Luau8LocationELb1ELb1EEC2Ev(ptr noundef nonnull align 4 dereferenceable(20) %3) #18
  ret void
}

; Function Attrs: mustprogress nounwind uwtable
define linkonce_odr dso_local void @_ZNSt8optionalIN4Luau8LocationEEC2IRS1_TnNSt9enable_ifIX7__and_vISt6__not_ISt7is_sameIS2_NSt9remove_cvINSt16remove_referenceIT_E4typeEE4typeEEES6_IS7_ISt10in_place_tSE_EESt16is_constructibleIS1_JSA_EESt14is_convertibleISA_S1_EEEbE4typeELb1EEEOSA_(ptr noundef nonnull align 4 dereferenceable(20) %0, ptr noundef nonnull align 4 dereferenceable(16) %1) unnamed_addr #2 comdat align 2 personality ptr @__gxx_personality_v0 {
  %3 = alloca ptr, align 8
  %4 = alloca ptr, align 8
  store ptr %0, ptr %3, align 8, !tbaa !466
  store ptr %1, ptr %4, align 8, !tbaa !416
  %5 = load ptr, ptr %3, align 8
  %6 = load ptr, ptr %4, align 8, !tbaa !416
  invoke void @_ZNSt14_Optional_baseIN4Luau8LocationELb1ELb1EEC2IJRS1_ETnNSt9enable_ifIX18is_constructible_vIS1_DpT_EEbE4typeELb0EEESt10in_place_tDpOS6_(ptr noundef nonnull align 4 dereferenceable(20) %5, ptr noundef nonnull align 4 dereferenceable(16) %6)
          to label %7 unwind label %8

7:                                                ; preds = %2
  ret void

8:                                                ; preds = %2
  %9 = landingpad { ptr, i32 }
          catch ptr null
  %10 = extractvalue { ptr, i32 } %9, 0
  call void @__clang_call_terminate(ptr %10) #19
  unreachable
}

; Function Attrs: mustprogress nounwind uwtable
define linkonce_odr dso_local noundef ptr @_ZNSt8optionalIN4Luau8LocationEEptEv(ptr noundef nonnull align 4 dereferenceable(20) %0) #2 comdat align 2 {
  %2 = alloca ptr, align 8
  store ptr %0, ptr %2, align 8, !tbaa !466
  %3 = load ptr, ptr %2, align 8
  %4 = call noundef nonnull align 4 dereferenceable(16) ptr @_ZNSt19_Optional_base_implIN4Luau8LocationESt14_Optional_baseIS1_Lb1ELb1EEE6_M_getEv(ptr noundef nonnull align 1 dereferenceable(1) %3) #18
  ret ptr %4
}

; Function Attrs: mustprogress nounwind uwtable
define linkonce_odr dso_local noundef zeroext i1 @_ZNKSt8optionalIN4Luau8LocationEEcvbEv(ptr noundef nonnull align 4 dereferenceable(20) %0) #2 comdat align 2 {
  %2 = alloca ptr, align 8
  store ptr %0, ptr %2, align 8, !tbaa !466
  %3 = load ptr, ptr %2, align 8
  %4 = call noundef zeroext i1 @_ZNKSt19_Optional_base_implIN4Luau8LocationESt14_Optional_baseIS1_Lb1ELb1EEE13_M_is_engagedEv(ptr noundef nonnull align 1 dereferenceable(1) %3) #18
  ret i1 %4
}

; Function Attrs: mustprogress nounwind uwtable
define linkonce_odr dso_local void @_ZN4Luau11ExprOrLocal11getLocationEv(ptr dead_on_unwind noalias writable sret(%"class.std::optional.4") align 4 %0, ptr noundef nonnull align 8 dereferenceable(16) %1) #2 comdat align 2 {
  %3 = alloca ptr, align 8
  store ptr %1, ptr %3, align 8, !tbaa !449
  %4 = load ptr, ptr %3, align 8
  %5 = getelementptr inbounds nuw %"struct.Luau::ExprOrLocal", ptr %4, i32 0, i32 0
  %6 = load ptr, ptr %5, align 8, !tbaa !451
  %7 = icmp ne ptr %6, null
  br i1 %7, label %8, label %12

8:                                                ; preds = %2
  %9 = getelementptr inbounds nuw %"struct.Luau::ExprOrLocal", ptr %4, i32 0, i32 0
  %10 = load ptr, ptr %9, align 8, !tbaa !451
  %11 = getelementptr inbounds nuw %"class.Luau::AstNode", ptr %10, i32 0, i32 2
  call void @_ZNSt8optionalIN4Luau8LocationEEC2IRS1_TnNSt9enable_ifIX7__and_vISt6__not_ISt7is_sameIS2_NSt9remove_cvINSt16remove_referenceIT_E4typeEE4typeEEES6_IS7_ISt10in_place_tSE_EESt16is_constructibleIS1_JSA_EESt14is_convertibleISA_S1_EEEbE4typeELb1EEEOSA_(ptr noundef nonnull align 4 dereferenceable(20) %0, ptr noundef nonnull align 4 dereferenceable(16) %11) #18
  br label %22

12:                                               ; preds = %2
  %13 = getelementptr inbounds nuw %"struct.Luau::ExprOrLocal", ptr %4, i32 0, i32 1
  %14 = load ptr, ptr %13, align 8, !tbaa !453
  %15 = icmp ne ptr %14, null
  br i1 %15, label %16, label %20

16:                                               ; preds = %12
  %17 = getelementptr inbounds nuw %"struct.Luau::ExprOrLocal", ptr %4, i32 0, i32 1
  %18 = load ptr, ptr %17, align 8, !tbaa !453
  %19 = getelementptr inbounds nuw %"struct.Luau::AstLocal", ptr %18, i32 0, i32 1
  call void @_ZNSt8optionalIN4Luau8LocationEEC2IRS1_TnNSt9enable_ifIX7__and_vISt6__not_ISt7is_sameIS2_NSt9remove_cvINSt16remove_referenceIT_E4typeEE4typeEEES6_IS7_ISt10in_place_tSE_EESt16is_constructibleIS1_JSA_EESt14is_convertibleISA_S1_EEEbE4typeELb1EEEOSA_(ptr noundef nonnull align 4 dereferenceable(20) %0, ptr noundef nonnull align 4 dereferenceable(16) %19) #18
  br label %21

20:                                               ; preds = %12
  call void @_ZNSt8optionalIN4Luau8LocationEEC2Ev(ptr noundef nonnull align 4 dereferenceable(20) %0) #18
  br label %21

21:                                               ; preds = %20, %16
  br label %22

22:                                               ; preds = %21, %8
  ret void
}

; Function Attrs: mustprogress nounwind uwtable
define linkonce_odr dso_local void @_ZN4Luau11ExprOrLocal8setLocalEPNS_8AstLocalE(ptr noundef nonnull align 8 dereferenceable(16) %0, ptr noundef %1) #2 comdat align 2 {
  %3 = alloca ptr, align 8
  %4 = alloca ptr, align 8
  store ptr %0, ptr %3, align 8, !tbaa !449
  store ptr %1, ptr %4, align 8, !tbaa !143
  %5 = load ptr, ptr %3, align 8
  %6 = load ptr, ptr %4, align 8, !tbaa !143
  %7 = getelementptr inbounds nuw %"struct.Luau::ExprOrLocal", ptr %5, i32 0, i32 1
  store ptr %6, ptr %7, align 8, !tbaa !453
  %8 = getelementptr inbounds nuw %"struct.Luau::ExprOrLocal", ptr %5, i32 0, i32 0
  store ptr null, ptr %8, align 8, !tbaa !451
  ret void
}

; Function Attrs: mustprogress uwtable
define internal noundef zeroext i1 @_ZN4Luau12_GLOBAL__N_115FindExprOrLocal13isCloserMatchENS_8LocationE(ptr noundef nonnull align 8 dereferenceable(32) %0, i64 %1, i64 %2) #5 align 2 {
  %4 = alloca %"struct.Luau::Location", align 4
  %5 = alloca ptr, align 8
  %6 = alloca %"class.std::optional.4", align 4
  %7 = getelementptr inbounds nuw { i64, i64 }, ptr %4, i32 0, i32 0
  store i64 %1, ptr %7, align 4
  %8 = getelementptr inbounds nuw { i64, i64 }, ptr %4, i32 0, i32 1
  store i64 %2, ptr %8, align 4
  store ptr %0, ptr %5, align 8, !tbaa !182
  %9 = load ptr, ptr %5, align 8
  call void @llvm.lifetime.start.p0(i64 20, ptr %6) #18
  %10 = getelementptr inbounds nuw %"struct.Luau::(anonymous namespace)::FindExprOrLocal", ptr %9, i32 0, i32 2
  call void @_ZN4Luau11ExprOrLocal11getLocationEv(ptr dead_on_unwind writable sret(%"class.std::optional.4") align 4 %6, ptr noundef nonnull align 8 dereferenceable(16) %10)
  %11 = getelementptr inbounds nuw %"struct.Luau::(anonymous namespace)::FindExprOrLocal", ptr %9, i32 0, i32 1
  %12 = call noundef zeroext i1 @_ZNK4Luau8Location8containsERKNS_8PositionE(ptr noundef nonnull align 4 dereferenceable(16) %4, ptr noundef nonnull align 4 dereferenceable(8) %11)
  br i1 %12, label %13, label %20

13:                                               ; preds = %3
  %14 = call noundef zeroext i1 @_ZNKSt8optionalIN4Luau8LocationEEcvbEv(ptr noundef nonnull align 4 dereferenceable(20) %6) #18
  br i1 %14, label %15, label %18

15:                                               ; preds = %13
  %16 = call noundef ptr @_ZNSt8optionalIN4Luau8LocationEEptEv(ptr noundef nonnull align 4 dereferenceable(20) %6) #18
  %17 = call noundef zeroext i1 @_ZNK4Luau8Location8enclosesERKS0_(ptr noundef nonnull align 4 dereferenceable(16) %16, ptr noundef nonnull align 4 dereferenceable(16) %4)
  br label %18

18:                                               ; preds = %15, %13
  %19 = phi i1 [ true, %13 ], [ %17, %15 ]
  br label %20

20:                                               ; preds = %18, %3
  %21 = phi i1 [ false, %3 ], [ %19, %18 ]
  call void @llvm.lifetime.end.p0(i64 20, ptr %6) #18
  ret i1 %21
}

; Function Attrs: mustprogress uwtable
define internal noundef zeroext i1 @_ZN4Luau12_GLOBAL__N_115FindExprOrLocal10visitLocalEPNS_8AstLocalE(ptr noundef nonnull align 8 dereferenceable(32) %0, ptr noundef %1) #5 align 2 {
  %3 = alloca i1, align 1
  %4 = alloca ptr, align 8
  %5 = alloca ptr, align 8
  %6 = alloca %"struct.Luau::Location", align 4
  store ptr %0, ptr %4, align 8, !tbaa !182
  store ptr %1, ptr %5, align 8, !tbaa !143
  %7 = load ptr, ptr %4, align 8
  %8 = load ptr, ptr %5, align 8, !tbaa !143
  %9 = getelementptr inbounds nuw %"struct.Luau::AstLocal", ptr %8, i32 0, i32 1
  call void @llvm.memcpy.p0.p0.i64(ptr align 4 %6, ptr align 8 %9, i64 16, i1 false), !tbaa.struct !111
  %10 = getelementptr inbounds nuw { i64, i64 }, ptr %6, i32 0, i32 0
  %11 = load i64, ptr %10, align 4
  %12 = getelementptr inbounds nuw { i64, i64 }, ptr %6, i32 0, i32 1
  %13 = load i64, ptr %12, align 4
  %14 = call noundef zeroext i1 @_ZN4Luau12_GLOBAL__N_115FindExprOrLocal13isCloserMatchENS_8LocationE(ptr noundef nonnull align 8 dereferenceable(32) %7, i64 %11, i64 %13)
  br i1 %14, label %15, label %18

15:                                               ; preds = %2
  %16 = getelementptr inbounds nuw %"struct.Luau::(anonymous namespace)::FindExprOrLocal", ptr %7, i32 0, i32 2
  %17 = load ptr, ptr %5, align 8, !tbaa !143
  call void @_ZN4Luau11ExprOrLocal8setLocalEPNS_8AstLocalE(ptr noundef nonnull align 8 dereferenceable(16) %16, ptr noundef %17)
  store i1 true, ptr %3, align 1
  br label %19

18:                                               ; preds = %2
  store i1 false, ptr %3, align 1
  br label %19

19:                                               ; preds = %18, %15
  %20 = load i1, ptr %3, align 1
  ret i1 %20
}

; Function Attrs: mustprogress uwtable
define internal noundef zeroext i1 @_ZN4Luau12_GLOBAL__N_115FindExprOrLocal5visitEPNS_12AstStatLocalE(ptr noundef nonnull align 8 dereferenceable(32) %0, ptr noundef %1) unnamed_addr #5 align 2 {
  %3 = alloca ptr, align 8
  %4 = alloca ptr, align 8
  %5 = alloca i64, align 8
  store ptr %0, ptr %3, align 8, !tbaa !182
  store ptr %1, ptr %4, align 8, !tbaa !151
  %6 = load ptr, ptr %3, align 8
  call void @llvm.lifetime.start.p0(i64 8, ptr %5) #18
  store i64 0, ptr %5, align 8, !tbaa !205
  br label %7

7:                                                ; preds = %24, %2
  %8 = load i64, ptr %5, align 8, !tbaa !205
  %9 = load ptr, ptr %4, align 8, !tbaa !151
  %10 = getelementptr inbounds nuw %"class.Luau::AstStatLocal", ptr %9, i32 0, i32 2
  %11 = getelementptr inbounds nuw %"struct.Luau::AstArray.2", ptr %10, i32 0, i32 1
  %12 = load i64, ptr %11, align 8, !tbaa !455
  %13 = icmp ult i64 %8, %12
  br i1 %13, label %15, label %14

14:                                               ; preds = %7
  call void @llvm.lifetime.end.p0(i64 8, ptr %5) #18
  br label %27

15:                                               ; preds = %7
  %16 = load ptr, ptr %4, align 8, !tbaa !151
  %17 = getelementptr inbounds nuw %"class.Luau::AstStatLocal", ptr %16, i32 0, i32 2
  %18 = getelementptr inbounds nuw %"struct.Luau::AstArray.2", ptr %17, i32 0, i32 0
  %19 = load ptr, ptr %18, align 8, !tbaa !457
  %20 = load i64, ptr %5, align 8, !tbaa !205
  %21 = getelementptr inbounds nuw ptr, ptr %19, i64 %20
  %22 = load ptr, ptr %21, align 8, !tbaa !143
  %23 = call noundef zeroext i1 @_ZN4Luau12_GLOBAL__N_115FindExprOrLocal10visitLocalEPNS_8AstLocalE(ptr noundef nonnull align 8 dereferenceable(32) %6, ptr noundef %22)
  br label %24

24:                                               ; preds = %15
  %25 = load i64, ptr %5, align 8, !tbaa !205
  %26 = add i64 %25, 1
  store i64 %26, ptr %5, align 8, !tbaa !205
  br label %7, !llvm.loop !458

27:                                               ; preds = %14
  ret i1 true
}