; Function Attrs: mustprogress uwtable
define internal noundef zeroext i1 @_ZN4Luau12_GLOBAL__N_115FindExprOrLocal5visitEPNS_12AstStatLocalE(ptr noundef nonnull align 8 dereferenceable(32) %0, ptr noundef readonly captures(none) %1) unnamed_addr #4 align 2 personality ptr @__gxx_personality_v0 {
  %3 = alloca %"struct.Luau::Location", align 8
  %4 = alloca %"class.std::optional.4", align 4
  %5 = getelementptr inbounds nuw i8, ptr %1, i64 40
  %6 = load i64, ptr %5, align 8, !tbaa !241
  %.not = icmp eq i64 %6, 0
  br i1 %.not, label %._crit_edge, label %.lr.ph

.lr.ph:                                           ; preds = %2
  %7 = getelementptr inbounds nuw i8, ptr %1, i64 32
  %8 = getelementptr inbounds nuw i8, ptr %3, i64 8
  %9 = getelementptr inbounds nuw i8, ptr %0, i64 16
  %10 = getelementptr inbounds nuw i8, ptr %0, i64 24
  %11 = getelementptr inbounds nuw i8, ptr %4, i64 16
  %12 = getelementptr inbounds nuw i8, ptr %0, i64 8
  br label %13

._crit_edge:                                      ; preds = %_ZN4Luau12_GLOBAL__N_115FindExprOrLocal10visitLocalEPNS_8AstLocalE.exit, %2
  ret i1 true

13:                                               ; preds = %.lr.ph, %_ZN4Luau12_GLOBAL__N_115FindExprOrLocal10visitLocalEPNS_8AstLocalE.exit
  %.05 = phi i64 [ 0, %.lr.ph ], [ %31, %_ZN4Luau12_GLOBAL__N_115FindExprOrLocal10visitLocalEPNS_8AstLocalE.exit ]
  %14 = load ptr, ptr %7, align 8, !tbaa !243
  %15 = getelementptr inbounds nuw ptr, ptr %14, i64 %.05
  %16 = load ptr, ptr %15, align 8, !tbaa !120
  %17 = getelementptr inbounds nuw i8, ptr %16, i64 8
  %.sroa.0.0.copyload.i = load i64, ptr %17, align 8
  %.sroa.2.0..sroa_idx.i = getelementptr inbounds nuw i8, ptr %16, i64 16
  %.sroa.2.0.copyload.i = load i64, ptr %.sroa.2.0..sroa_idx.i, align 8
  call void @llvm.lifetime.start.p0(i64 16, ptr nonnull %3)
  store i64 %.sroa.0.0.copyload.i, ptr %3, align 8
  store i64 %.sroa.2.0.copyload.i, ptr %8, align 8
  call void @llvm.lifetime.start.p0(i64 20, ptr nonnull %4) #24
  call void @llvm.experimental.noalias.scope.decl(metadata !244)
  %18 = load ptr, ptr %9, align 8, !tbaa !233, !noalias !244
  %.not.i.i.i = icmp eq ptr %18, null
  br i1 %.not.i.i.i, label %21, label %19

19:                                               ; preds = %13
  %20 = getelementptr inbounds nuw i8, ptr %18, i64 12
  br label %.sink.split.i.i.i

21:                                               ; preds = %13
  %22 = load ptr, ptr %10, align 8, !tbaa !235, !noalias !244
  %.not2.i.i.i = icmp eq ptr %22, null
  br i1 %.not2.i.i.i, label %_ZN4Luau11ExprOrLocal11getLocationEv.exit.i.i, label %23

23:                                               ; preds = %21
  %24 = getelementptr inbounds nuw i8, ptr %22, i64 8
  br label %.sink.split.i.i.i

.sink.split.i.i.i:                                ; preds = %23, %19
  %.sink4.i.i.i = phi ptr [ %24, %23 ], [ %20, %19 ]
  call void @llvm.memcpy.p0.p0.i64(ptr noundef nonnull align 4 dereferenceable(20) %4, ptr noundef nonnull align 4 dereferenceable(16) %.sink4.i.i.i, i64 16, i1 false)
  br label %_ZN4Luau11ExprOrLocal11getLocationEv.exit.i.i

_ZN4Luau11ExprOrLocal11getLocationEv.exit.i.i:    ; preds = %.sink.split.i.i.i, %21
  %25 = phi i8 [ 0, %21 ], [ 1, %.sink.split.i.i.i ]
  store i8 %25, ptr %11, align 4, !tbaa !236, !alias.scope !244
  %26 = call noundef zeroext i1 @_ZNK4Luau8Location8containsERKNS_8PositionE(ptr noundef nonnull align 4 dereferenceable(16) %3, ptr noundef nonnull align 4 dereferenceable(8) %12)
  br i1 %26, label %27, label %_ZN4Luau12_GLOBAL__N_115FindExprOrLocal13isCloserMatchENS_8LocationE.exit.thread4.i

_ZN4Luau12_GLOBAL__N_115FindExprOrLocal13isCloserMatchENS_8LocationE.exit.thread4.i: ; preds = %_ZN4Luau11ExprOrLocal11getLocationEv.exit.i.i
  call void @llvm.lifetime.end.p0(i64 20, ptr nonnull %4) #24
  call void @llvm.lifetime.end.p0(i64 16, ptr nonnull %3)
  br label %_ZN4Luau12_GLOBAL__N_115FindExprOrLocal10visitLocalEPNS_8AstLocalE.exit

27:                                               ; preds = %_ZN4Luau11ExprOrLocal11getLocationEv.exit.i.i
  %28 = trunc nuw i8 %25 to i1
  br i1 %28, label %_ZN4Luau12_GLOBAL__N_115FindExprOrLocal13isCloserMatchENS_8LocationE.exit.i, label %_ZN4Luau12_GLOBAL__N_115FindExprOrLocal13isCloserMatchENS_8LocationE.exit.thread.i

_ZN4Luau12_GLOBAL__N_115FindExprOrLocal13isCloserMatchENS_8LocationE.exit.thread.i: ; preds = %27
  call void @llvm.lifetime.end.p0(i64 20, ptr nonnull %4) #24
  call void @llvm.lifetime.end.p0(i64 16, ptr nonnull %3)
  br label %30

_ZN4Luau12_GLOBAL__N_115FindExprOrLocal13isCloserMatchENS_8LocationE.exit.i: ; preds = %27
  %29 = call noundef zeroext i1 @_ZNK4Luau8Location8enclosesERKS0_(ptr noundef nonnull align 4 dereferenceable(16) %4, ptr noundef nonnull align 4 dereferenceable(16) %3)
  call void @llvm.lifetime.end.p0(i64 20, ptr nonnull %4) #24
  call void @llvm.lifetime.end.p0(i64 16, ptr nonnull %3)
  br i1 %29, label %30, label %_ZN4Luau12_GLOBAL__N_115FindExprOrLocal10visitLocalEPNS_8AstLocalE.exit

30:                                               ; preds = %_ZN4Luau12_GLOBAL__N_115FindExprOrLocal13isCloserMatchENS_8LocationE.exit.i, %_ZN4Luau12_GLOBAL__N_115FindExprOrLocal13isCloserMatchENS_8LocationE.exit.thread.i
  store ptr %16, ptr %10, align 8, !tbaa !235
  store ptr null, ptr %9, align 8, !tbaa !233
  br label %_ZN4Luau12_GLOBAL__N_115FindExprOrLocal10visitLocalEPNS_8AstLocalE.exit

_ZN4Luau12_GLOBAL__N_115FindExprOrLocal10visitLocalEPNS_8AstLocalE.exit: ; preds = %_ZN4Luau12_GLOBAL__N_115FindExprOrLocal13isCloserMatchENS_8LocationE.exit.thread4.i, %_ZN4Luau12_GLOBAL__N_115FindExprOrLocal13isCloserMatchENS_8LocationE.exit.i, %30
  %31 = add nuw i64 %.05, 1
  %32 = load i64, ptr %5, align 8, !tbaa !241
  %33 = icmp ult i64 %31, %32
  br i1 %33, label %13, label %._crit_edge, !llvm.loop !247
}